target datalayout = "e-m:e-p270:32:32-p271:32:32-p272:64:64-i64:64-i128:128-f80:128-n8:16:32:64-S128"
target triple = "x86_64-pc-linux-gnu"

%"class.llvm::details::FixedOrScalableQuantity" = type <{ i64, i8, [7 x i8] }>

@.str.3 = private unnamed_addr constant [99 x i8] c"Cannot implicitly convert a scalable size to a fixed-width size in `TypeSize::operator ScalarTy()`\00", align 1

; Function Attrs: mustprogress nounwind uwtable
define linkonce_odr hidden noundef i64 @_ZNK4llvm7details23FixedOrScalableQuantityINS_8TypeSizeEmE13getFixedValueEv(ptr noundef nonnull align 8 dereferenceable(9) %0) #0 comdat align 2 {
  %2 = alloca ptr, align 8
  store ptr %0, ptr %2, align 8
  %3 = load ptr, ptr %2, align 8
  %4 = call noundef i64 @_ZNK4llvm7details23FixedOrScalableQuantityINS_8TypeSizeEmE16getKnownMinValueEv(ptr noundef nonnull align 8 dereferenceable(9) %3)
  ret i64 %4
}

; Function Attrs: mustprogress nounwind uwtable
define linkonce_odr hidden noundef i64 @_ZNK4llvm7details23FixedOrScalableQuantityINS_8TypeSizeEmE16getKnownMinValueEv(ptr noundef nonnull align 8 dereferenceable(9) %0) #0 comdat align 2 {
  %2 = alloca ptr, align 8
  store ptr %0, ptr %2, align 8
  %3 = load ptr, ptr %2, align 8
  %4 = getelementptr inbounds nuw %"class.llvm::details::FixedOrScalableQuantity", ptr %3, i32 0, i32 0
  %5 = load i64, ptr %4, align 8
  ret i64 %5
}

; Function Attrs: mustprogress nounwind uwtable
define linkonce_odr hidden noundef zeroext i1 @_ZNK4llvm7details23FixedOrScalableQuantityINS_8TypeSizeEmE10isScalableEv(ptr noundef nonnull align 8 dereferenceable(9) %0) #0 comdat align 2 {
  %2 = alloca ptr, align 8
  store ptr %0, ptr %2, align 8
  %3 = load ptr, ptr %2, align 8
  %4 = getelementptr inbounds nuw %"class.llvm::details::FixedOrScalableQuantity", ptr %3, i32 0, i32 1
  %5 = load i8, ptr %4, align 8
  %6 = trunc i8 %5 to i1
  ret i1 %6
}

; Function Attrs: mustprogress nounwind uwtable
define dso_local noundef i64 @_ZNK4llvm8TypeSizecvmEv(ptr noundef nonnull align 8 dereferenceable(9) %0) #0 align 2 {
  %2 = alloca i64, align 8
  %3 = alloca ptr, align 8
  store ptr %0, ptr %3, align 8
  %4 = load ptr, ptr %3, align 8
  %5 = call noundef zeroext i1 @_ZNK4llvm7details23FixedOrScalableQuantityINS_8TypeSizeEmE10isScalableEv(ptr noundef nonnull align 8 dereferenceable(9) %4)
  br i1 %5, label %6, label %8

6:                                                ; preds = %1
  call void @_ZN4llvm24reportInvalidSizeRequestEPKc(ptr noundef @.str.3)
  %7 = call noundef i64 @_ZNK4llvm7details23FixedOrScalableQuantityINS_8TypeSizeEmE16getKnownMinValueEv(ptr noundef nonnull align 8 dereferenceable(9) %4)
  store i64 %7, ptr %2, align 8
  br label %10

8:                                                ; preds = %1
  %9 = call noundef i64 @_ZNK4llvm7details23FixedOrScalableQuantityINS_8TypeSizeEmE13getFixedValueEv(ptr noundef nonnull align 8 dereferenceable(9) %4)
  store i64 %9, ptr %2, align 8
  br label %10

10:                                               ; preds = %8, %6
  %11 = load i64, ptr %2, align 8
  ret i64 %11
}