; Function Attrs: mustprogress nounwind uwtable
define dso_local noundef i64 @_ZNK4llvm8TypeSizecvmEv(ptr noundef nonnull readonly align 8 captures(none) dereferenceable(9) %0) local_unnamed_addr #0 align 2 {
  %2 = getelementptr inbounds nuw i8, ptr %0, i64 8
  %3 = load i8, ptr %2, align 8
  %4 = trunc i8 %3 to i1
  br i1 %4, label %5, label %6

5:                                                ; preds = %1
  tail call void @_ZN4llvm24reportInvalidSizeRequestEPKc(ptr noundef nonnull @.str.3)
  br label %6

6:                                                ; preds = %1, %5
  %.0 = load i64, ptr %0, align 8
  ret i64 %.0
}